target datalayout = "e-m:e-p270:32:32-p271:32:32-p272:64:64-i64:64-i128:128-f80:128-n8:16:32:64-S128"
target triple = "x86_64-pc-linux-gnu"

%class.Statement = type { ptr, i32, i32, ptr, ptr }

; Function Attrs: mustprogress uwtable
define dso_local void @_ZNK9Statement11output_hashERSoi(ptr noundef nonnull align 8 dereferenceable(32) %0, ptr noundef nonnull align 8 dereferenceable(8) %1, i32 noundef %2) #5 align 2 {
  %4 = alloca ptr, align 8
  %5 = alloca ptr, align 8
  %6 = alloca i32, align 4
  store ptr %0, ptr %4, align 8
  store ptr %1, ptr %5, align 8
  store i32 %2, ptr %6, align 4
  %7 = load ptr, ptr %4, align 8
  %8 = call noundef zeroext i1 @_ZN9CGOptions17step_hash_by_stmtEv()
  br i1 %8, label %9, label %14

9:                                                ; preds = %3
  %10 = load ptr, ptr %5, align 8
  %11 = load i32, ptr %6, align 4
  %12 = getelementptr inbounds %class.Statement, ptr %7, i32 0, i32 2
  %13 = load i32, ptr %12, align 4
  call void @_ZN9OutputMgr28OutputStepHashFuncInvocationERSoii(ptr noundef nonnull align 8 dereferenceable(8) %10, i32 noundef %11, i32 noundef %13)
  br label %14

14:                                               ; preds = %9, %3
  ret void
}