; Function Attrs: mustprogress uwtable
define dso_local void @_ZNK9Statement11output_hashERSoi(ptr nocapture noundef nonnull readonly align 8 dereferenceable(32) %0, ptr noundef nonnull align 8 dereferenceable(8) %1, i32 noundef %2) local_unnamed_addr #4 align 2 {
  %4 = tail call noundef zeroext i1 @_ZN9CGOptions17step_hash_by_stmtEv()
  br i1 %4, label %5, label %8

5:                                                ; preds = %3
  %6 = getelementptr inbounds i8, ptr %0, i64 12
  %7 = load i32, ptr %6, align 4
  tail call void @_ZN9OutputMgr28OutputStepHashFuncInvocationERSoii(ptr noundef nonnull align 8 dereferenceable(8) %1, i32 noundef %2, i32 noundef %7)
  br label %8

8:                                                ; preds = %5, %3
  ret void
}